; Function Attrs: mustprogress uwtable
define internal fastcc noundef zeroext i1 @"_ZZN12_GLOBAL__N_115cmQtAutoMocUicT12InitFromInfoERKN17cmQtAutoGenerator5InfoTEENK3$_1clEbSt17basic_string_viewIcSt11char_traitsIcEE"(ptr %.0.val, i32 %.8.val, i1 noundef zeroext %0, i64 %1, ptr %2) unnamed_addr #3 align 2 personality ptr @__gxx_personality_v0 {
  %4 = alloca [4 x %"struct.std::pair.107"], align 8
  %5 = alloca %class.cmAlphaNum, align 8
  %6 = alloca %"class.std::__cxx11::basic_string", align 8
  br i1 %0, label %30, label %7

7:                                                ; preds = %3
  call void @llvm.lifetime.start.p0(i64 96, ptr nonnull %4)
  call void @llvm.lifetime.start.p0(i64 56, ptr nonnull %5)
  store i64 26, ptr %4, align 8, !alias.scope !163, !noalias !166
  %.sroa.2.0..sroa_idx.i.i = getelementptr inbounds i8, ptr %4, i64 8
  store ptr @.str.73, ptr %.sroa.2.0..sroa_idx.i.i, align 8, !alias.scope !163, !noalias !166
  %8 = getelementptr inbounds i8, ptr %4, i64 16
  store ptr null, ptr %8, align 8, !alias.scope !163, !noalias !166
  call void @_ZN10cmAlphaNumC1Ej(ptr noundef nonnull align 8 dereferenceable(56) %5, i32 noundef %.8.val), !noalias !166
  call void @llvm.experimental.noalias.scope.decl(metadata !169)
  %9 = load ptr, ptr %5, align 8, !noalias !172
  %.not.i.i6.i = icmp eq ptr %9, null
  br i1 %.not.i.i6.i, label %14, label %10

10:                                               ; preds = %7
  %11 = call { i64, ptr } @_ZNKSt7__cxx1112basic_stringIcSt11char_traitsIcESaIcEEcvSt17basic_string_viewIcS2_EEv(ptr noundef nonnull align 8 dereferenceable(32) %9) #23, !noalias !172
  %12 = extractvalue { i64, ptr } %11, 0
  %13 = extractvalue { i64, ptr } %11, 1
  %.pre.i7.i = load ptr, ptr %5, align 8, !noalias !172
  br label %_Z8cmStrCatIRA27_KcRKjJRA3_S0_RSt17basic_string_viewIcSt11char_traitsIcEEEENSt7__cxx1112basic_stringIcS9_SaIcEEEOT_OT0_DpOT1_.exit

14:                                               ; preds = %7
  %15 = getelementptr inbounds i8, ptr %5, i64 8
  %.sroa.0.0.copyload.i.i11.i = load i64, ptr %15, align 8, !noalias !172
  %.sroa.3.0..sroa_idx.i.i12.i = getelementptr inbounds i8, ptr %5, i64 16
  %.sroa.3.0.copyload.i.i13.i = load ptr, ptr %.sroa.3.0..sroa_idx.i.i12.i, align 8, !noalias !172
  br label %_Z8cmStrCatIRA27_KcRKjJRA3_S0_RSt17basic_string_viewIcSt11char_traitsIcEEEENSt7__cxx1112basic_stringIcS9_SaIcEEEOT_OT0_DpOT1_.exit

_Z8cmStrCatIRA27_KcRKjJRA3_S0_RSt17basic_string_viewIcSt11char_traitsIcEEEENSt7__cxx1112basic_stringIcS9_SaIcEEEOT_OT0_DpOT1_.exit: ; preds = %10, %14
  %16 = phi ptr [ %.pre.i7.i, %10 ], [ null, %14 ]
  %.sroa.0.0.i.i8.i = phi i64 [ %12, %10 ], [ %.sroa.0.0.copyload.i.i11.i, %14 ]
  %.sroa.3.0.i.i9.i = phi ptr [ %13, %10 ], [ %.sroa.3.0.copyload.i.i13.i, %14 ]
  %17 = getelementptr inbounds i8, ptr %4, i64 24
  store i64 %.sroa.0.0.i.i8.i, ptr %17, align 8, !alias.scope !169, !noalias !166
  %.sroa.2.0..sroa_idx.i10.i = getelementptr inbounds i8, ptr %4, i64 32
  store ptr %.sroa.3.0.i.i9.i, ptr %.sroa.2.0..sroa_idx.i10.i, align 8, !alias.scope !169, !noalias !166
  %18 = getelementptr inbounds i8, ptr %4, i64 40
  store ptr %16, ptr %18, align 8, !alias.scope !169, !noalias !166
  %19 = getelementptr inbounds i8, ptr %4, i64 48
  store i64 2, ptr %19, align 8, !alias.scope !173, !noalias !166
  %.sroa.2.0..sroa_idx.i19.i = getelementptr inbounds i8, ptr %4, i64 56
  store ptr @.str.74, ptr %.sroa.2.0..sroa_idx.i19.i, align 8, !alias.scope !173, !noalias !166
  %20 = getelementptr inbounds i8, ptr %4, i64 64
  store ptr null, ptr %20, align 8, !alias.scope !173, !noalias !166
  %21 = getelementptr inbounds i8, ptr %4, i64 72
  store i64 %1, ptr %21, align 8, !alias.scope !176, !noalias !166
  %.sroa.2.0..sroa_idx.i29.i = getelementptr inbounds i8, ptr %4, i64 80
  store ptr %2, ptr %.sroa.2.0..sroa_idx.i29.i, align 8, !alias.scope !176, !noalias !166
  %22 = getelementptr inbounds i8, ptr %4, i64 88
  store ptr null, ptr %22, align 8, !alias.scope !176, !noalias !166
  call void @_Z10cmCatViewsSt16initializer_listISt4pairISt17basic_string_viewIcSt11char_traitsIcEEPNSt7__cxx1112basic_stringIcS3_SaIcEEEEE(ptr dead_on_unwind nonnull writable sret(%"class.std::__cxx11::basic_string") align 8 %6, ptr nonnull %4, i64 4)
  call void @llvm.lifetime.end.p0(i64 96, ptr nonnull %4)
  call void @llvm.lifetime.end.p0(i64 56, ptr nonnull %5)
  %23 = call { i64, ptr } @_ZNKSt7__cxx1112basic_stringIcSt11char_traitsIcESaIcEEcvSt17basic_string_viewIcS2_EEv(ptr noundef nonnull align 8 dereferenceable(32) %6) #23
  %24 = extractvalue { i64, ptr } %23, 0
  %25 = extractvalue { i64, ptr } %23, 1
  %26 = invoke noundef zeroext i1 @_ZNK17cmQtAutoGenerator5InfoT8LogErrorESt17basic_string_viewIcSt11char_traitsIcEE(ptr noundef nonnull align 8 dereferenceable(48) %.0.val, i64 %24, ptr %25)
          to label %27 unwind label %28

27:                                               ; preds = %_Z8cmStrCatIRA27_KcRKjJRA3_S0_RSt17basic_string_viewIcSt11char_traitsIcEEEENSt7__cxx1112basic_stringIcS9_SaIcEEEOT_OT0_DpOT1_.exit
  call void @_ZNSt7__cxx1112basic_stringIcSt11char_traitsIcESaIcEED1Ev(ptr noundef nonnull align 8 dereferenceable(32) %6) #23
  br label %30

28:                                               ; preds = %_Z8cmStrCatIRA27_KcRKjJRA3_S0_RSt17basic_string_viewIcSt11char_traitsIcEEEENSt7__cxx1112basic_stringIcS9_SaIcEEEOT_OT0_DpOT1_.exit
  %29 = landingpad { ptr, i32 }
          cleanup
  call void @_ZNSt7__cxx1112basic_stringIcSt11char_traitsIcESaIcEED1Ev(ptr noundef nonnull align 8 dereferenceable(32) %6) #23
  resume { ptr, i32 } %29

30:                                               ; preds = %27, %3
  %31 = xor i1 %0, true
  ret i1 %31
}